target datalayout = "e-m:e-p270:32:32-p271:32:32-p272:64:64-i64:64-i128:128-f80:128-n8:16:32:64-S128"
target triple = "x86_64-unknown-linux-gnu"

%"class.google::protobuf::io::ZeroCopyInputStream" = type { ptr }
%"class.google::protobuf::io::ConcatenatingInputStream" = type { %"class.google::protobuf::io::ZeroCopyInputStream", ptr, i32, i64 }
%"class.absl::lts_20230802::log_internal::NullStream" = type { i8 }

; Function Attrs: mustprogress nounwind uwtable
define linkonce_odr hidden noundef nonnull align 1 dereferenceable(1) ptr @_ZN4absl12lts_2023080212log_internal10NullStream14InternalStreamEv(ptr noundef nonnull align 1 dereferenceable(1) %this) #5 comdat align 2 {
entry:
  %this.addr = alloca ptr, align 8
  store ptr %this, ptr %this.addr, align 8
  %this1 = load ptr, ptr %this.addr, align 8
  ret ptr %this1
}

; Function Attrs: mustprogress uwtable
define noundef zeroext i1 @_ZN6google8protobuf2io24ConcatenatingInputStream4SkipEi(ptr noundef nonnull align 8 dereferenceable(32) %this, i32 noundef %count) unnamed_addr #4 align 2 {
entry:
  %retval = alloca i1, align 1
  %this.addr = alloca ptr, align 8
  %count.addr = alloca i32, align 4
  %target_byte_count = alloca i64, align 8
  %final_byte_count = alloca i64, align 8
  %ref.tmp = alloca %"class.absl::lts_20230802::log_internal::NullStream", align 1
  store ptr %this, ptr %this.addr, align 8
  store i32 %count, ptr %count.addr, align 4
  %this1 = load ptr, ptr %this.addr, align 8
  br label %while.cond

while.cond:                                       ; preds = %while.end, %entry
  %stream_count_ = getelementptr inbounds %"class.google::protobuf::io::ConcatenatingInputStream", ptr %this1, i32 0, i32 2
  %0 = load i32, ptr %stream_count_, align 8
  %cmp = icmp sgt i32 %0, 0
  br i1 %cmp, label %while.body, label %while.end19

while.body:                                       ; preds = %while.cond
  %streams_ = getelementptr inbounds %"class.google::protobuf::io::ConcatenatingInputStream", ptr %this1, i32 0, i32 1
  %1 = load ptr, ptr %streams_, align 8
  %arrayidx = getelementptr inbounds ptr, ptr %1, i64 0
  %2 = load ptr, ptr %arrayidx, align 8
  %vtable = load ptr, ptr %2, align 8
  %vfn = getelementptr inbounds ptr, ptr %vtable, i64 5
  %3 = load ptr, ptr %vfn, align 8
  %call = call noundef i64 %3(ptr noundef nonnull align 8 dereferenceable(8) %2)
  %4 = load i32, ptr %count.addr, align 4
  %conv = sext i32 %4 to i64
  %add = add nsw i64 %call, %conv
  store i64 %add, ptr %target_byte_count, align 8
  %streams_2 = getelementptr inbounds %"class.google::protobuf::io::ConcatenatingInputStream", ptr %this1, i32 0, i32 1
  %5 = load ptr, ptr %streams_2, align 8
  %arrayidx3 = getelementptr inbounds ptr, ptr %5, i64 0
  %6 = load ptr, ptr %arrayidx3, align 8
  %7 = load i32, ptr %count.addr, align 4
  %vtable4 = load ptr, ptr %6, align 8
  %vfn5 = getelementptr inbounds ptr, ptr %vtable4, i64 4
  %8 = load ptr, ptr %vfn5, align 8
  %call6 = call noundef zeroext i1 %8(ptr noundef nonnull align 8 dereferenceable(8) %6, i32 noundef %7)
  br i1 %call6, label %if.then, label %if.end

if.then:                                          ; preds = %while.body
  store i1 true, ptr %retval, align 1
  br label %return

if.end:                                           ; preds = %while.body
  %streams_7 = getelementptr inbounds %"class.google::protobuf::io::ConcatenatingInputStream", ptr %this1, i32 0, i32 1
  %9 = load ptr, ptr %streams_7, align 8
  %arrayidx8 = getelementptr inbounds ptr, ptr %9, i64 0
  %10 = load ptr, ptr %arrayidx8, align 8
  %vtable9 = load ptr, ptr %10, align 8
  %vfn10 = getelementptr inbounds ptr, ptr %vtable9, i64 5
  %11 = load ptr, ptr %vfn10, align 8
  %call11 = call noundef i64 %11(ptr noundef nonnull align 8 dereferenceable(8) %10)
  store i64 %call11, ptr %final_byte_count, align 8
  br label %while.cond12

while.cond12:                                     ; preds = %while.body13, %if.end
  br i1 false, label %while.body13, label %while.end

while.body13:                                     ; preds = %while.cond12
  %call14 = call noundef nonnull align 1 dereferenceable(1) ptr @_ZN4absl12lts_2023080212log_internal10NullStream14InternalStreamEv(ptr noundef nonnull align 1 dereferenceable(1) %ref.tmp)
  br label %while.cond12, !llvm.loop !10

while.end:                                        ; preds = %while.cond12
  %12 = load i64, ptr %target_byte_count, align 8
  %13 = load i64, ptr %final_byte_count, align 8
  %sub = sub nsw i64 %12, %13
  %conv15 = trunc i64 %sub to i32
  store i32 %conv15, ptr %count.addr, align 4
  %14 = load i64, ptr %final_byte_count, align 8
  %bytes_retired_ = getelementptr inbounds %"class.google::protobuf::io::ConcatenatingInputStream", ptr %this1, i32 0, i32 3
  %15 = load i64, ptr %bytes_retired_, align 8
  %add16 = add nsw i64 %15, %14
  store i64 %add16, ptr %bytes_retired_, align 8
  %streams_17 = getelementptr inbounds %"class.google::protobuf::io::ConcatenatingInputStream", ptr %this1, i32 0, i32 1
  %16 = load ptr, ptr %streams_17, align 8
  %incdec.ptr = getelementptr inbounds ptr, ptr %16, i32 1
  store ptr %incdec.ptr, ptr %streams_17, align 8
  %stream_count_18 = getelementptr inbounds %"class.google::protobuf::io::ConcatenatingInputStream", ptr %this1, i32 0, i32 2
  %17 = load i32, ptr %stream_count_18, align 8
  %dec = add nsw i32 %17, -1
  store i32 %dec, ptr %stream_count_18, align 8
  br label %while.cond, !llvm.loop !11

while.end19:                                      ; preds = %while.cond
  store i1 false, ptr %retval, align 1
  br label %return

return:                                           ; preds = %while.end19, %if.then
  %18 = load i1, ptr %retval, align 1
  ret i1 %18
}