; Function Attrs: mustprogress uwtable
define noundef zeroext i1 @_ZN6google8protobuf2io24ConcatenatingInputStream4SkipEi(ptr nocapture noundef nonnull align 8 dereferenceable(32) %this, i32 noundef %count) unnamed_addr #3 align 2 {
entry:
  %stream_count_ = getelementptr inbounds i8, ptr %this, i64 16
  %0 = load i32, ptr %stream_count_, align 8
  %cmp3 = icmp sgt i32 %0, 0
  br i1 %cmp3, label %while.body.lr.ph, label %return

while.body.lr.ph:                                 ; preds = %entry
  %streams_ = getelementptr inbounds i8, ptr %this, i64 8
  %bytes_retired_ = getelementptr inbounds i8, ptr %this, i64 24
  %.pre = load ptr, ptr %streams_, align 8
  br label %while.body

while.body:                                       ; preds = %while.body.lr.ph, %if.end
  %1 = phi ptr [ %.pre, %while.body.lr.ph ], [ %incdec.ptr, %if.end ]
  %count.addr.04 = phi i32 [ %count, %while.body.lr.ph ], [ %conv15, %if.end ]
  %2 = load ptr, ptr %1, align 8
  %vtable = load ptr, ptr %2, align 8
  %vfn = getelementptr inbounds i8, ptr %vtable, i64 40
  %3 = load ptr, ptr %vfn, align 8
  %call = tail call noundef i64 %3(ptr noundef nonnull align 8 dereferenceable(8) %2)
  %4 = load ptr, ptr %streams_, align 8
  %5 = load ptr, ptr %4, align 8
  %vtable4 = load ptr, ptr %5, align 8
  %vfn5 = getelementptr inbounds i8, ptr %vtable4, i64 32
  %6 = load ptr, ptr %vfn5, align 8
  %call6 = tail call noundef zeroext i1 %6(ptr noundef nonnull align 8 dereferenceable(8) %5, i32 noundef %count.addr.04)
  br i1 %call6, label %return, label %if.end

if.end:                                           ; preds = %while.body
  %conv = zext i32 %count.addr.04 to i64
  %add = add i64 %call, %conv
  %7 = load ptr, ptr %streams_, align 8
  %8 = load ptr, ptr %7, align 8
  %vtable9 = load ptr, ptr %8, align 8
  %vfn10 = getelementptr inbounds i8, ptr %vtable9, i64 40
  %9 = load ptr, ptr %vfn10, align 8
  %call11 = tail call noundef i64 %9(ptr noundef nonnull align 8 dereferenceable(8) %8)
  %sub = sub i64 %add, %call11
  %conv15 = trunc i64 %sub to i32
  %10 = load i64, ptr %bytes_retired_, align 8
  %add16 = add nsw i64 %10, %call11
  store i64 %add16, ptr %bytes_retired_, align 8
  %11 = load ptr, ptr %streams_, align 8
  %incdec.ptr = getelementptr inbounds i8, ptr %11, i64 8
  store ptr %incdec.ptr, ptr %streams_, align 8
  %12 = load i32, ptr %stream_count_, align 8
  %dec = add nsw i32 %12, -1
  store i32 %dec, ptr %stream_count_, align 8
  %cmp = icmp sgt i32 %12, 1
  br i1 %cmp, label %while.body, label %return, !llvm.loop !10

return:                                           ; preds = %while.body, %if.end, %entry
  %cmp.lcssa = phi i1 [ false, %entry ], [ %call6, %if.end ], [ %call6, %while.body ]
  ret i1 %cmp.lcssa
}